(dp0
S'josh'
p1
(dp2
S'digit5presented'
p3
I3
sS'logins'
p4
I4
sS'digit8presented'
p5
I3
sS'digit6presented'
p6
I3
sS'digit9presented'
p7
I5
sS'digit4presented'
p8
I5
sS'digit2presented'
p9
I1
sS'digit0presented'
p10
I5
sS'digit3presented'
p11
I4
sS'digit1presented'
p12
I5
sS'digit7presented'
p13
I4
ssS'jj'
p14
(dp15
S'logins'
p16
I1
sS'digit5presented'
p17
I1
sS'digit3presented'
p18
I1
sS'digit2presented'
p19
I1
sS'digit1presented'
p20
I1
ss.