(dp0
S'jj'
p1
(dp2
S'digit5presented'
p3
I7
sS'logins'
p4
I5
sS'digit8presented'
p5
I6
sS'digit6presented'
p6
I4
sS'digit9presented'
p7
I2
sS'digit4presented'
p8
I3
sS'digit2presented'
p9
I4
sS'digit0presented'
p10
I1
sS'digit3presented'
p11
I7
sS'digit1presented'
p12
I7
sS'digit7presented'
p13
I6
ss.