(dp0
S'jj'
p1
(dp2
S'digit5presented'
p3
I1
sS'2 Sucessful signs'
p4
I2
sS'prevSessionCorrect'
p5
F4.0
sS'9 Sucessful signs'
p6
I1
sS'prevSessionPresented'
p7
F6.0
sS'0 Sucessful signs'
p8
I2
sS'digit0presented'
p9
I3
sS'digit1presented'
p10
I2
sS'digit8presented'
p11
I1
sS'3 Sucessful signs'
p12
I2
sS'logins'
p13
I2
sS'digit3presented'
p14
I3
sS'8 Sucessful signs'
p15
I1
sS'4 Sucessful signs'
p16
I1
sS'1 Sucessful signs'
p17
I2
sS'digit9presented'
p18
I1
sS'digit4presented'
p19
I3
sS'digit2presented'
p20
I2
sS'6 Sucessful signs'
p21
I1
sS'5 Sucessful signs'
p22
I1
sS'7 Sucessful signs'
p23
I1
sS'digit6presented'
p24
I1
sS'digit7presented'
p25
I1
ss.