(dp0
S'leap'
p1
(dp2
S'logins'
p3
I1
sS'1 Sucessful signs'
p4
I1
sS'prevSessionCorrect'
p5
F2.0
sS'0 Sucessful signs'
p6
I1
sS'digit2presented'
p7
I2
sS'digit0presented'
p8
I1
sS'digit1presented'
p9
I1
sS'prevSessionPresented'
p10
F3.0
ssS'grace'
p11
(dp12
S'digit5presented'
p13
I9
sS'2 Sucessful signs'
p14
I6
sS'prevSessionCorrect'
p15
F11.0
sS'9 Sucessful signs'
p16
I2
sS'prevSessionPresented'
p17
F13.0
sS'0 Sucessful signs'
p18
I7
sS'digit0presented'
p19
I32
sS'digit1presented'
p20
I8
sS'digit8presented'
p21
I2
sS'3 Sucessful signs'
p22
I6
sS'4 Sucessful signs'
p23
I5
sS'digit3presented'
p24
I7
sS'8 Sucessful signs'
p25
I2
sS'logins'
p26
I13
sS'1 Sucessful signs'
p27
I6
sS'digit9presented'
p28
I2
sS'digit4presented'
p29
I7
sS'digit2presented'
p30
I6
sS'6 Sucessful signs'
p31
I2
sS'5 Sucessful signs'
p32
I3
sS'7 Sucessful signs'
p33
I2
sS'digit6presented'
p34
I3
sS'digit7presented'
p35
I2
ssS'jj'
p36
(dp37
S'digit5presented'
p38
I11
sS'2 Sucessful signs'
p39
I14
sS'prevSessionCorrect'
p40
F6.0
sS'9 Sucessful signs'
p41
I4
sS'prevSessionPresented'
p42
F11.0
sS'0 Sucessful signs'
p43
I19
sS'digit0presented'
p44
I38
sS'digit1presented'
p45
I34
sS'digit8presented'
p46
I4
sS'3 Sucessful signs'
p47
I14
sS'4 Sucessful signs'
p48
I11
sS'digit3presented'
p49
I17
sS'8 Sucessful signs'
p50
I4
sS'logins'
p51
I23
sS'1 Sucessful signs'
p52
I15
sS'digit9presented'
p53
I4
sS'digit4presented'
p54
I19
sS'digit2presented'
p55
I17
sS'6 Sucessful signs'
p56
I4
sS'5 Sucessful signs'
p57
I10
sS'7 Sucessful signs'
p58
I4
sS'digit6presented'
p59
I11
sS'digit7presented'
p60
I4
ss.