(dp0
S'john'
p1
(dp2
S'logins'
p3
I1
sS'1 Sucessful signs'
p4
I1
sS'prevSessionCorrect'
p5
F2.0
sS'0 Sucessful signs'
p6
I1
sS'digit2presented'
p7
I2
sS'digit0presented'
p8
I1
sS'digit1presented'
p9
I1
sS'prevSessionPresented'
p10
F3.0
ssS'jj'
p11
(dp12
S'digit5presented'
p13
I1
sS'2 Sucessful signs'
p14
I2
sS'5 Sucessful signs'
p15
I1
sS'logins'
p16
I3
sS'1 Sucessful signs'
p17
I2
sS'prevSessionCorrect'
p18
F0.0
sS'0 Sucessful signs'
p19
I2
sS'digit4presented'
p20
I1
sS'3 Sucessful signs'
p21
I1
sS'digit2presented'
p22
I2
sS'4 Sucessful signs'
p23
I1
sS'digit0presented'
p24
I7
sS'digit3presented'
p25
I3
sS'digit1presented'
p26
I2
sS'prevSessionPresented'
p27
F0.0
sS'digit6presented'
p28
I1
sS'6 Sucessful signs'
p29
I1
sS'digit7presented'
p30
I1
ss.