(dp0
S'jj'
p1
(dp2
S'0Sucessful signs'
p3
I1
sS'4Sucessful signs'
p4
I2
sS'6Sucessful signs'
p5
I1
sS'1Sucessful signs'
p6
I2
sS'digit5presented'
p7
I2
sS'logins'
p8
I1
sS'digit8presented'
p9
I1
sS'digit6presented'
p10
I1
sS'digit9presented'
p11
I1
sS'digit4presented'
p12
I2
sS'2Sucessful signs'
p13
I2
sS'digit2presented'
p14
I2
sS'3Sucessful signs'
p15
I2
sS'digit0presented'
p16
I1
sS'digit3presented'
p17
I2
sS'8Sucessful signs'
p18
I1
sS'digit1presented'
p19
I3
sS'5Sucessful signs'
p20
I2
sS'7Sucessful signs'
p21
I1
sS'digit7presented'
p22
I1
ss.