(dp0
S'jj'
p1
(dp2
S'digit5presented'
p3
I4
sS'2 Sucessful signs'
p4
I4
sS'8 Sucessful signs'
p5
I4
sS'5 Sucessful signs'
p6
I4
sS'9 Sucessful signs'
p7
I4
sS'logins'
p8
I1
sS'1 Sucessful signs'
p9
I4
sS'digit8presented'
p10
I4
sS'7 Sucessful signs'
p11
I4
sS'0 Sucessful signs'
p12
I4
sS'digit9presented'
p13
I4
sS'digit4presented'
p14
I4
sS'3 Sucessful signs'
p15
I4
sS'digit2presented'
p16
I4
sS'4 Sucessful signs'
p17
I4
sS'digit0presented'
p18
I13
sS'digit3presented'
p19
I4
sS'digit1presented'
p20
I7
sS'digit6presented'
p21
I4
sS'6 Sucessful signs'
p22
I4
sS'digit7presented'
p23
I4
ss.